target datalayout = "e-m:e-p270:32:32-p271:32:32-p272:64:64-i64:64-i128:128-f80:128-n8:16:32:64-S128"
target triple = "x86_64-pc-linux-gnu"

@j2d_cupsServer = hidden global ptr null, align 8

; Function Attrs: nounwind uwtable
define ptr @Java_sun_print_CUPSPrinter_getCupsServer(ptr noundef %0, ptr noundef %1) #0 {
  %3 = alloca ptr, align 8
  %4 = alloca ptr, align 8
  %5 = alloca ptr, align 8
  %6 = alloca ptr, align 8
  store ptr %0, ptr %3, align 8
  store ptr %1, ptr %4, align 8
  store ptr null, ptr %5, align 8
  %7 = load ptr, ptr @j2d_cupsServer, align 8
  %8 = call ptr %7()
  store ptr %8, ptr %6, align 8
  %9 = load ptr, ptr %6, align 8
  %10 = icmp ne ptr %9, null
  br i1 %10, label %11, label %15

11:                                               ; preds = %2
  %12 = load ptr, ptr %3, align 8
  %13 = load ptr, ptr %6, align 8
  %14 = call ptr @JNU_NewStringPlatform(ptr noundef %12, ptr noundef %13)
  store ptr %14, ptr %5, align 8
  br label %15

15:                                               ; preds = %11, %2
  %16 = load ptr, ptr %5, align 8
  ret ptr %16
}