; Function Attrs: nounwind uwtable
define ptr @Java_sun_print_CUPSPrinter_getCupsServer(ptr noundef %0, ptr nocapture noundef readnone %1) local_unnamed_addr #0 {
  %3 = load ptr, ptr @j2d_cupsServer, align 8
  %4 = tail call ptr %3() #5
  %.not = icmp eq ptr %4, null
  br i1 %.not, label %7, label %5

5:                                                ; preds = %2
  %6 = tail call ptr @JNU_NewStringPlatform(ptr noundef %0, ptr noundef nonnull %4) #5
  br label %7

7:                                                ; preds = %5, %2
  %.0 = phi ptr [ %6, %5 ], [ null, %2 ]
  ret ptr %.0
}